target datalayout = "e-m:e-p270:32:32-p271:32:32-p272:64:64-i64:64-i128:128-f80:128-n8:16:32:64-S128"
target triple = "x86_64-pc-linux-gnu"

@_ZL21gCorrectedPOSIXLocale = internal global ptr null, align 8
@.str.6 = private unnamed_addr constant [2 x i8] c"C\00", align 1
@.str.7 = private unnamed_addr constant [6 x i8] c"POSIX\00", align 1
@.str.8 = private unnamed_addr constant [12 x i8] c"en_US_POSIX\00", align 1
@.str.9 = private unnamed_addr constant [8 x i8] c"nynorsk\00", align 1
@.str.10 = private unnamed_addr constant [3 x i8] c"NY\00", align 1
@.str.11 = private unnamed_addr constant [3 x i8] c"__\00", align 1
@.str.12 = private unnamed_addr constant [2 x i8] c"_\00", align 1
@_ZL34gCorrectedPOSIXLocaleHeapAllocated = internal global i8 0, align 1
@_ZZL31uprv_getPOSIXIDForDefaultLocalevE7posixID = internal global ptr null, align 8
@.str.179 = private unnamed_addr constant [7 x i8] c"LC_ALL\00", align 1
@.str.180 = private unnamed_addr constant [12 x i8] c"LC_MESSAGES\00", align 1
@.str.181 = private unnamed_addr constant [9 x i8] c"LC_CTYPE\00", align 1
@.str.182 = private unnamed_addr constant [5 x i8] c"LANG\00", align 1

; Function Attrs: mustprogress nounwind uwtable
define internal noundef ptr @_ZL26uprv_getPOSIXIDForCategoryi(i32 noundef %0) #0 {
  %2 = alloca i32, align 4
  %3 = alloca ptr, align 8
  store i32 %0, ptr %2, align 4, !tbaa !14
  call void @llvm.lifetime.start.p0(i64 8, ptr %3) #14
  store ptr null, ptr %3, align 8, !tbaa !17
  %4 = load i32, ptr %2, align 4, !tbaa !14
  %5 = icmp eq i32 %4, 5
  br i1 %5, label %9, label %6

6:                                                ; preds = %1
  %7 = load i32, ptr %2, align 4, !tbaa !14
  %8 = icmp eq i32 %7, 0
  br i1 %8, label %9, label %38

9:                                                ; preds = %6, %1
  %10 = load i32, ptr %2, align 4, !tbaa !14
  %11 = call ptr @setlocale(i32 noundef %10, ptr noundef null) #14
  store ptr %11, ptr %3, align 8, !tbaa !17
  %12 = load ptr, ptr %3, align 8, !tbaa !17
  %13 = icmp eq ptr %12, null
  br i1 %13, label %22, label %14

14:                                               ; preds = %9
  %15 = load ptr, ptr %3, align 8, !tbaa !17
  %16 = call i32 @strcmp(ptr noundef @.str.6, ptr noundef %15) #17
  %17 = icmp eq i32 %16, 0
  br i1 %17, label %22, label %18

18:                                               ; preds = %14
  %19 = load ptr, ptr %3, align 8, !tbaa !17
  %20 = call i32 @strcmp(ptr noundef @.str.7, ptr noundef %19) #17
  %21 = icmp eq i32 %20, 0
  br i1 %21, label %22, label %37

22:                                               ; preds = %18, %14, %9
  %23 = call ptr @getenv(ptr noundef @.str.179) #14
  store ptr %23, ptr %3, align 8, !tbaa !17
  %24 = load ptr, ptr %3, align 8, !tbaa !17
  %25 = icmp eq ptr %24, null
  br i1 %25, label %26, label %36

26:                                               ; preds = %22
  %27 = load i32, ptr %2, align 4, !tbaa !14
  %28 = icmp eq i32 %27, 5
  %29 = select i1 %28, ptr @.str.180, ptr @.str.181
  %30 = call ptr @getenv(ptr noundef %29) #14
  store ptr %30, ptr %3, align 8, !tbaa !17
  %31 = load ptr, ptr %3, align 8, !tbaa !17
  %32 = icmp eq ptr %31, null
  br i1 %32, label %33, label %35

33:                                               ; preds = %26
  %34 = call ptr @getenv(ptr noundef @.str.182) #14
  store ptr %34, ptr %3, align 8, !tbaa !17
  br label %35

35:                                               ; preds = %33, %26
  br label %36

36:                                               ; preds = %35, %22
  br label %37

37:                                               ; preds = %36, %18
  br label %38

38:                                               ; preds = %37, %6
  %39 = load ptr, ptr %3, align 8, !tbaa !17
  %40 = icmp eq ptr %39, null
  br i1 %40, label %49, label %41

41:                                               ; preds = %38
  %42 = load ptr, ptr %3, align 8, !tbaa !17
  %43 = call i32 @strcmp(ptr noundef @.str.6, ptr noundef %42) #17
  %44 = icmp eq i32 %43, 0
  br i1 %44, label %49, label %45

45:                                               ; preds = %41
  %46 = load ptr, ptr %3, align 8, !tbaa !17
  %47 = call i32 @strcmp(ptr noundef @.str.7, ptr noundef %46) #17
  %48 = icmp eq i32 %47, 0
  br i1 %48, label %49, label %50

49:                                               ; preds = %45, %41, %38
  store ptr @.str.8, ptr %3, align 8, !tbaa !17
  br label %50

50:                                               ; preds = %49, %45
  %51 = load ptr, ptr %3, align 8, !tbaa !17
  call void @llvm.lifetime.end.p0(i64 8, ptr %3) #14
  ret ptr %51
}

; Function Attrs: mustprogress uwtable
define internal noundef ptr @_ZL31uprv_getPOSIXIDForDefaultLocalev() #1 {
  %1 = load ptr, ptr @_ZZL31uprv_getPOSIXIDForDefaultLocalevE7posixID, align 8, !tbaa !17
  %2 = icmp eq ptr %1, null
  br i1 %2, label %3, label %5

3:                                                ; preds = %0
  %4 = call noundef ptr @_ZL26uprv_getPOSIXIDForCategoryi(i32 noundef 5)
  store ptr %4, ptr @_ZZL31uprv_getPOSIXIDForDefaultLocalevE7posixID, align 8, !tbaa !17
  br label %5

5:                                                ; preds = %3, %0
  %6 = load ptr, ptr @_ZZL31uprv_getPOSIXIDForDefaultLocalevE7posixID, align 8, !tbaa !17
  ret ptr %6
}

; Function Attrs: mustprogress uwtable
define ptr @uprv_getDefaultLocaleID_77() #1 {
  %1 = alloca ptr, align 8
  %2 = alloca ptr, align 8
  %3 = alloca i32, align 4
  %4 = alloca ptr, align 8
  %5 = alloca ptr, align 8
  %6 = alloca ptr, align 8
  %7 = alloca ptr, align 8
  %8 = alloca i32, align 4
  call void @llvm.lifetime.start.p0(i64 8, ptr %2) #14
  %9 = call noundef ptr @_ZL31uprv_getPOSIXIDForDefaultLocalev()
  store ptr %9, ptr %2, align 8, !tbaa !17
  %10 = load ptr, ptr @_ZL21gCorrectedPOSIXLocale, align 8, !tbaa !17
  %11 = icmp ne ptr %10, null
  br i1 %11, label %12, label %14

12:                                               ; preds = %0
  %13 = load ptr, ptr @_ZL21gCorrectedPOSIXLocale, align 8, !tbaa !17
  store ptr %13, ptr %1, align 8
  store i32 1, ptr %3, align 4
  br label %115

14:                                               ; preds = %0
  call void @llvm.lifetime.start.p0(i64 8, ptr %4) #14
  %15 = load ptr, ptr %2, align 8, !tbaa !17
  %16 = call i64 @strlen(ptr noundef %15) #17
  %17 = add i64 %16, 10
  %18 = add i64 %17, 1
  %19 = call noalias ptr @uprv_malloc_77(i64 noundef %18) #15
  store ptr %19, ptr %4, align 8, !tbaa !17
  %20 = load ptr, ptr %4, align 8, !tbaa !17
  %21 = icmp eq ptr %20, null
  br i1 %21, label %22, label %23

22:                                               ; preds = %14
  store ptr null, ptr %1, align 8
  store i32 1, ptr %3, align 4
  br label %114

23:                                               ; preds = %14
  %24 = load ptr, ptr %4, align 8, !tbaa !17
  %25 = load ptr, ptr %2, align 8, !tbaa !17
  %26 = call ptr @strcpy(ptr noundef %24, ptr noundef %25) #14
  call void @llvm.lifetime.start.p0(i64 8, ptr %5) #14
  %27 = load ptr, ptr %4, align 8, !tbaa !17
  %28 = call noundef ptr @strchr(ptr noundef %27, i32 noundef 46) #17
  store ptr %28, ptr %5, align 8, !tbaa !17
  %29 = icmp ne ptr %28, null
  br i1 %29, label %30, label %32

30:                                               ; preds = %23
  %31 = load ptr, ptr %5, align 8, !tbaa !17
  store i8 0, ptr %31, align 1, !tbaa !28
  br label %32

32:                                               ; preds = %30, %23
  %33 = load ptr, ptr %4, align 8, !tbaa !17
  %34 = call noundef ptr @strchr(ptr noundef %33, i32 noundef 64) #17
  store ptr %34, ptr %5, align 8, !tbaa !17
  %35 = icmp ne ptr %34, null
  br i1 %35, label %36, label %38

36:                                               ; preds = %32
  %37 = load ptr, ptr %5, align 8, !tbaa !17
  store i8 0, ptr %37, align 1, !tbaa !28
  br label %38

38:                                               ; preds = %36, %32
  %39 = load ptr, ptr %4, align 8, !tbaa !17
  %40 = call i32 @strcmp(ptr noundef @.str.6, ptr noundef %39) #17
  %41 = icmp eq i32 %40, 0
  br i1 %41, label %46, label %42

42:                                               ; preds = %38
  %43 = load ptr, ptr %4, align 8, !tbaa !17
  %44 = call i32 @strcmp(ptr noundef @.str.7, ptr noundef %43) #17
  %45 = icmp eq i32 %44, 0
  br i1 %45, label %46, label %49

46:                                               ; preds = %42, %38
  %47 = load ptr, ptr %4, align 8, !tbaa !17
  %48 = call ptr @strcpy(ptr noundef %47, ptr noundef @.str.8) #14
  br label %49

49:                                               ; preds = %46, %42
  call void @llvm.lifetime.start.p0(i64 8, ptr %6) #14
  %50 = load ptr, ptr %2, align 8, !tbaa !17
  %51 = call noundef ptr @strrchr(ptr noundef %50, i32 noundef 64) #17
  store ptr %51, ptr %6, align 8, !tbaa !17
  %52 = icmp ne ptr %51, null
  br i1 %52, label %53, label %101

53:                                               ; preds = %49
  %54 = load ptr, ptr %6, align 8, !tbaa !17
  %55 = getelementptr inbounds nuw i8, ptr %54, i32 1
  store ptr %55, ptr %6, align 8, !tbaa !17
  %56 = load ptr, ptr %6, align 8, !tbaa !17
  %57 = call i32 @strcmp(ptr noundef %56, ptr noundef @.str.9) #17
  %58 = icmp ne i32 %57, 0
  br i1 %58, label %60, label %59

59:                                               ; preds = %53
  store ptr @.str.10, ptr %6, align 8, !tbaa !17
  br label %60

60:                                               ; preds = %59, %53
  %61 = load ptr, ptr %4, align 8, !tbaa !17
  %62 = call noundef ptr @strchr(ptr noundef %61, i32 noundef 95) #17
  %63 = icmp eq ptr %62, null
  br i1 %63, label %64, label %67

64:                                               ; preds = %60
  %65 = load ptr, ptr %4, align 8, !tbaa !17
  %66 = call ptr @strcat(ptr noundef %65, ptr noundef @.str.11) #14
  br label %70

67:                                               ; preds = %60
  %68 = load ptr, ptr %4, align 8, !tbaa !17
  %69 = call ptr @strcat(ptr noundef %68, ptr noundef @.str.12) #14
  br label %70

70:                                               ; preds = %67, %64
  call void @llvm.lifetime.start.p0(i64 8, ptr %7) #14
  %71 = load ptr, ptr %6, align 8, !tbaa !17
  %72 = call noundef ptr @strchr(ptr noundef %71, i32 noundef 46) #17
  store ptr %72, ptr %7, align 8, !tbaa !17
  %73 = icmp ne ptr %72, null
  br i1 %73, label %74, label %96

74:                                               ; preds = %70
  call void @llvm.lifetime.start.p0(i64 4, ptr %8) #14
  %75 = load ptr, ptr %4, align 8, !tbaa !17
  %76 = call i64 @strlen(ptr noundef %75) #17
  %77 = load ptr, ptr %7, align 8, !tbaa !17
  %78 = load ptr, ptr %6, align 8, !tbaa !17
  %79 = ptrtoint ptr %77 to i64
  %80 = ptrtoint ptr %78 to i64
  %81 = sub i64 %79, %80
  %82 = add i64 %76, %81
  %83 = trunc i64 %82 to i32
  store i32 %83, ptr %8, align 4, !tbaa !14
  %84 = load ptr, ptr %4, align 8, !tbaa !17
  %85 = load ptr, ptr %6, align 8, !tbaa !17
  %86 = load ptr, ptr %7, align 8, !tbaa !17
  %87 = load ptr, ptr %6, align 8, !tbaa !17
  %88 = ptrtoint ptr %86 to i64
  %89 = ptrtoint ptr %87 to i64
  %90 = sub i64 %88, %89
  %91 = call ptr @strncat(ptr noundef %84, ptr noundef %85, i64 noundef %90) #14
  %92 = load ptr, ptr %4, align 8, !tbaa !17
  %93 = load i32, ptr %8, align 4, !tbaa !14
  %94 = sext i32 %93 to i64
  %95 = getelementptr inbounds i8, ptr %92, i64 %94
  store i8 0, ptr %95, align 1, !tbaa !28
  call void @llvm.lifetime.end.p0(i64 4, ptr %8) #14
  br label %100

96:                                               ; preds = %70
  %97 = load ptr, ptr %4, align 8, !tbaa !17
  %98 = load ptr, ptr %6, align 8, !tbaa !17
  %99 = call ptr @strcat(ptr noundef %97, ptr noundef %98) #14
  br label %100

100:                                              ; preds = %96, %74
  call void @llvm.lifetime.end.p0(i64 8, ptr %7) #14
  br label %101

101:                                              ; preds = %100, %49
  %102 = load ptr, ptr @_ZL21gCorrectedPOSIXLocale, align 8, !tbaa !17
  %103 = icmp eq ptr %102, null
  br i1 %103, label %104, label %106

104:                                              ; preds = %101
  %105 = load ptr, ptr %4, align 8, !tbaa !17
  store ptr %105, ptr @_ZL21gCorrectedPOSIXLocale, align 8, !tbaa !17
  store i8 1, ptr @_ZL34gCorrectedPOSIXLocaleHeapAllocated, align 1, !tbaa !62
  call void @ucln_common_registerCleanup_77(i32 noundef 24, ptr noundef @_ZL13putil_cleanupv)
  store ptr null, ptr %4, align 8, !tbaa !17
  br label %106

106:                                              ; preds = %104, %101
  %107 = load ptr, ptr @_ZL21gCorrectedPOSIXLocale, align 8, !tbaa !17
  store ptr %107, ptr %2, align 8, !tbaa !17
  %108 = load ptr, ptr %4, align 8, !tbaa !17
  %109 = icmp ne ptr %108, null
  br i1 %109, label %110, label %112

110:                                              ; preds = %106
  %111 = load ptr, ptr %4, align 8, !tbaa !17
  call void @uprv_free_77(ptr noundef %111)
  br label %112

112:                                              ; preds = %110, %106
  %113 = load ptr, ptr %2, align 8, !tbaa !17
  store ptr %113, ptr %1, align 8
  store i32 1, ptr %3, align 4
  call void @llvm.lifetime.end.p0(i64 8, ptr %6) #14
  call void @llvm.lifetime.end.p0(i64 8, ptr %5) #14
  br label %114

114:                                              ; preds = %112, %22
  call void @llvm.lifetime.end.p0(i64 8, ptr %4) #14
  br label %115

115:                                              ; preds = %114, %12
  call void @llvm.lifetime.end.p0(i64 8, ptr %2) #14
  %116 = load ptr, ptr %1, align 8
  ret ptr %116
}