; Function Attrs: mustprogress uwtable
define ptr @uprv_getDefaultLocaleID_77() local_unnamed_addr #1 {
  %1 = load ptr, ptr @_ZZL31uprv_getPOSIXIDForDefaultLocalevE7posixID, align 8, !tbaa !20
  %2 = icmp eq ptr %1, null
  br i1 %2, label %3, label %_ZL31uprv_getPOSIXIDForDefaultLocalev.exit

3:                                                ; preds = %0
  %4 = tail call ptr @setlocale(i32 noundef 5, ptr noundef null) #32
  %5 = icmp eq ptr %4, null
  br i1 %5, label %18, label %sub_0.i.i

sub_0.i.i:                                        ; preds = %3
  %6 = load i8, ptr %4, align 1
  %7 = zext i8 %6 to i32
  %8 = sub nsw i32 67, %7
  %.not.i.i = icmp eq i8 %6, 67
  br i1 %.not.i.i, label %sub_1.i.i, label %.tail.i.i

sub_1.i.i:                                        ; preds = %sub_0.i.i
  %9 = getelementptr inbounds nuw i8, ptr %4, i64 1
  %10 = load i8, ptr %9, align 1
  %11 = zext i8 %10 to i32
  %12 = sub nsw i32 0, %11
  br label %.tail.i.i

.tail.i.i:                                        ; preds = %sub_1.i.i, %sub_0.i.i
  %13 = phi i32 [ %8, %sub_0.i.i ], [ %12, %sub_1.i.i ]
  %14 = icmp eq i32 %13, 0
  br i1 %14, label %18, label %15

15:                                               ; preds = %.tail.i.i
  %16 = tail call i32 @strcmp(ptr noundef nonnull dereferenceable(6) @.str.7, ptr noundef nonnull dereferenceable(1) %4) #35
  %17 = icmp eq i32 %16, 0
  br i1 %17, label %18, label %sub_018.i.i

18:                                               ; preds = %15, %.tail.i.i, %3
  %19 = tail call ptr @getenv(ptr noundef nonnull @.str.179) #32
  %20 = icmp eq ptr %19, null
  br i1 %20, label %21, label %sub_018.i.i

21:                                               ; preds = %18
  %22 = tail call ptr @getenv(ptr noundef nonnull @.str.180) #32
  %23 = icmp eq ptr %22, null
  br i1 %23, label %24, label %sub_018.i.i

24:                                               ; preds = %21
  %25 = tail call ptr @getenv(ptr noundef nonnull @.str.182) #32
  %26 = icmp eq ptr %25, null
  br i1 %26, label %39, label %sub_018.i.i

sub_018.i.i:                                      ; preds = %24, %21, %18, %15
  %.017.i.i = phi ptr [ %25, %24 ], [ %4, %15 ], [ %19, %18 ], [ %22, %21 ]
  %27 = load i8, ptr %.017.i.i, align 1
  %28 = zext i8 %27 to i32
  %29 = sub nsw i32 67, %28
  %.not21.i.i = icmp eq i8 %27, 67
  br i1 %.not21.i.i, label %sub_119.i.i, label %.thread.tail.i.i

sub_119.i.i:                                      ; preds = %sub_018.i.i
  %30 = getelementptr inbounds nuw i8, ptr %.017.i.i, i64 1
  %31 = load i8, ptr %30, align 1
  %32 = zext i8 %31 to i32
  %33 = sub nsw i32 0, %32
  br label %.thread.tail.i.i

.thread.tail.i.i:                                 ; preds = %sub_119.i.i, %sub_018.i.i
  %34 = phi i32 [ %29, %sub_018.i.i ], [ %33, %sub_119.i.i ]
  %35 = icmp eq i32 %34, 0
  br i1 %35, label %39, label %36

36:                                               ; preds = %.thread.tail.i.i
  %37 = tail call i32 @strcmp(ptr noundef nonnull dereferenceable(6) @.str.7, ptr noundef nonnull dereferenceable(1) %.017.i.i) #35
  %38 = icmp eq i32 %37, 0
  br i1 %38, label %39, label %_ZL26uprv_getPOSIXIDForCategoryi.exit.i

39:                                               ; preds = %36, %.thread.tail.i.i, %24
  br label %_ZL26uprv_getPOSIXIDForCategoryi.exit.i

_ZL26uprv_getPOSIXIDForCategoryi.exit.i:          ; preds = %39, %36
  %.1.i.i = phi ptr [ @.str.8, %39 ], [ %.017.i.i, %36 ]
  store ptr %.1.i.i, ptr @_ZZL31uprv_getPOSIXIDForDefaultLocalevE7posixID, align 8, !tbaa !20
  br label %_ZL31uprv_getPOSIXIDForDefaultLocalev.exit

_ZL31uprv_getPOSIXIDForDefaultLocalev.exit:       ; preds = %0, %_ZL26uprv_getPOSIXIDForCategoryi.exit.i
  %40 = phi ptr [ %.1.i.i, %_ZL26uprv_getPOSIXIDForCategoryi.exit.i ], [ %1, %0 ]
  %41 = load ptr, ptr @_ZL21gCorrectedPOSIXLocale, align 8, !tbaa !20
  %.not = icmp eq ptr %41, null
  br i1 %.not, label %42, label %94

42:                                               ; preds = %_ZL31uprv_getPOSIXIDForDefaultLocalev.exit
  %43 = tail call i64 @strlen(ptr noundef nonnull dereferenceable(1) %40) #35
  %44 = add i64 %43, 11
  %45 = tail call noalias ptr @uprv_malloc_77(i64 noundef %44) #33
  %46 = icmp eq ptr %45, null
  br i1 %46, label %94, label %47

47:                                               ; preds = %42
  %48 = tail call ptr @strcpy(ptr noundef nonnull dereferenceable(1) %45, ptr noundef nonnull dereferenceable(1) %40) #32
  %49 = tail call noundef ptr @strchr(ptr noundef nonnull dereferenceable(1) %45, i32 noundef 46) #35
  %.not40 = icmp eq ptr %49, null
  br i1 %.not40, label %51, label %50

50:                                               ; preds = %47
  store i8 0, ptr %49, align 1, !tbaa !21
  br label %51

51:                                               ; preds = %50, %47
  %52 = tail call noundef ptr @strchr(ptr noundef nonnull dereferenceable(1) %45, i32 noundef 64) #35
  %.not41 = icmp eq ptr %52, null
  br i1 %.not41, label %sub_0, label %53

53:                                               ; preds = %51
  store i8 0, ptr %52, align 1, !tbaa !21
  br label %sub_0

sub_0:                                            ; preds = %51, %53
  %54 = load i8, ptr %45, align 1
  %55 = zext i8 %54 to i32
  %56 = sub nsw i32 67, %55
  %.not50 = icmp eq i8 %54, 67
  br i1 %.not50, label %sub_1, label %.tail

sub_1:                                            ; preds = %sub_0
  %57 = getelementptr inbounds nuw i8, ptr %45, i64 1
  %58 = load i8, ptr %57, align 1
  %59 = zext i8 %58 to i32
  %60 = sub nsw i32 0, %59
  br label %.tail

.tail:                                            ; preds = %sub_0, %sub_1
  %61 = phi i32 [ %56, %sub_0 ], [ %60, %sub_1 ]
  %62 = icmp eq i32 %61, 0
  br i1 %62, label %66, label %63

63:                                               ; preds = %.tail
  %64 = tail call i32 @strcmp(ptr noundef nonnull dereferenceable(6) @.str.7, ptr noundef nonnull dereferenceable(1) %45) #35
  %65 = icmp eq i32 %64, 0
  br i1 %65, label %66, label %67

66:                                               ; preds = %63, %.tail
  tail call void @llvm.memcpy.p0.p0.i64(ptr noundef nonnull align 1 dereferenceable(12) %45, ptr noundef nonnull align 1 dereferenceable(12) @.str.8, i64 12, i1 false) #32
  br label %67

67:                                               ; preds = %66, %63
  %68 = tail call noundef ptr @strrchr(ptr noundef nonnull dereferenceable(1) %40, i32 noundef 64) #35
  %.not42 = icmp eq ptr %68, null
  br i1 %.not42, label %89, label %69

69:                                               ; preds = %67
  %70 = getelementptr inbounds nuw i8, ptr %68, i64 1
  %71 = tail call i32 @strcmp(ptr noundef nonnull dereferenceable(1) %70, ptr noundef nonnull dereferenceable(8) @.str.9) #35
  %.not43 = icmp eq i32 %71, 0
  %spec.store.select = select i1 %.not43, ptr @.str.10, ptr %70
  %72 = tail call noundef ptr @strchr(ptr noundef nonnull dereferenceable(1) %45, i32 noundef 95) #35
  %73 = icmp eq ptr %72, null
  %strlen44 = tail call i64 @strlen(ptr nonnull dereferenceable(1) %45)
  %endptr45 = getelementptr inbounds i8, ptr %45, i64 %strlen44
  br i1 %73, label %74, label %75

74:                                               ; preds = %69
  tail call void @llvm.memcpy.p0.p0.i64(ptr noundef nonnull align 1 dereferenceable(3) %endptr45, ptr noundef nonnull align 1 dereferenceable(3) @.str.11, i64 3, i1 false)
  br label %76

75:                                               ; preds = %69
  store i16 95, ptr %endptr45, align 1
  br label %76

76:                                               ; preds = %75, %74
  %77 = tail call noundef ptr @strchr(ptr noundef nonnull dereferenceable(1) %spec.store.select, i32 noundef 46) #35
  %.not46 = icmp eq ptr %77, null
  br i1 %.not46, label %87, label %78

78:                                               ; preds = %76
  %79 = tail call i64 @strlen(ptr noundef nonnull dereferenceable(1) %45) #35
  %80 = ptrtoint ptr %77 to i64
  %81 = ptrtoint ptr %spec.store.select to i64
  %82 = sub i64 %80, %81
  %83 = add i64 %79, %82
  %84 = tail call ptr @strncat(ptr noundef nonnull dereferenceable(1) %45, ptr noundef nonnull %spec.store.select, i64 noundef %82) #32
  %sext = shl i64 %83, 32
  %85 = ashr exact i64 %sext, 32
  %86 = getelementptr inbounds i8, ptr %45, i64 %85
  store i8 0, ptr %86, align 1, !tbaa !21
  br label %89

87:                                               ; preds = %76
  %88 = tail call ptr @strcat(ptr noundef nonnull dereferenceable(1) %45, ptr noundef nonnull dereferenceable(1) %spec.store.select) #32
  br label %89

89:                                               ; preds = %78, %87, %67
  %90 = load ptr, ptr @_ZL21gCorrectedPOSIXLocale, align 8, !tbaa !20
  %91 = icmp eq ptr %90, null
  br i1 %91, label %.thread, label %93

.thread:                                          ; preds = %89
  store ptr %45, ptr @_ZL21gCorrectedPOSIXLocale, align 8, !tbaa !20
  store i1 true, ptr @_ZL34gCorrectedPOSIXLocaleHeapAllocated, align 1
  tail call void @ucln_common_registerCleanup_77(i32 noundef 24, ptr noundef nonnull @_ZL13putil_cleanupv)
  %92 = load ptr, ptr @_ZL21gCorrectedPOSIXLocale, align 8, !tbaa !20
  br label %94

93:                                               ; preds = %89
  tail call void @uprv_free_77(ptr noundef nonnull %45)
  br label %94

94:                                               ; preds = %.thread, %42, %93, %_ZL31uprv_getPOSIXIDForDefaultLocalev.exit
  %.0 = phi ptr [ %41, %_ZL31uprv_getPOSIXIDForDefaultLocalev.exit ], [ null, %42 ], [ %90, %93 ], [ %92, %.thread ]
  ret ptr %.0
}